#include <math.h>
#include <stdio.h>
#include <stdlib.h>
#include <string.h>

int main(int argc, char* argv[])
{
int  j,n,len2;
char a[100],b[100];     
scanf("%s %s",a,b);

len2=strlen(b);

for(j=0;j<len2;j++)
  {
if(a[0]==b[j]&&a[1]==b[j+1]&&j!=6)
{               
printf("%d",j);
}
}

return 0;
} 